; Function Attrs: mustprogress uwtable
define dso_local void @_ZNK22cmGlobalNinjaGenerator27OrderDependsTargetForTargetEPK17cmGeneratorTargetRKNSt7__cxx1112basic_stringIcSt11char_traitsIcESaIcEEE(ptr dead_on_unwind noalias writable sret(%"class.std::__cxx11::basic_string") align 8 %0, ptr nocapture nonnull readnone align 8 %1, ptr noundef nonnull %2, ptr nocapture nonnull readnone align 8 %3) unnamed_addr #3 align 2 personality ptr @__gxx_personality_v0 {
  %5 = alloca [2 x %"struct.std::pair.1104"], align 8
  %6 = tail call noundef nonnull align 8 dereferenceable(32) ptr @_ZNK17cmGeneratorTarget7GetNameB5cxx11Ev(ptr noundef nonnull align 8 dereferenceable(2728) %2)
  call void @llvm.lifetime.start.p0(i64 48, ptr nonnull %5)
  store i64 34, ptr %5, align 8, !alias.scope !418, !noalias !421
  %.sroa.2.0..sroa_idx.i.i = getelementptr inbounds i8, ptr %5, i64 8
  store ptr @.str.119, ptr %.sroa.2.0..sroa_idx.i.i, align 8, !alias.scope !418, !noalias !421
  %7 = getelementptr inbounds i8, ptr %5, i64 16
  store ptr null, ptr %7, align 8, !alias.scope !418, !noalias !421
  %8 = getelementptr inbounds i8, ptr %5, i64 24
  %9 = tail call { i64, ptr } @_ZNKSt7__cxx1112basic_stringIcSt11char_traitsIcESaIcEEcvSt17basic_string_viewIcS2_EEv(ptr noundef nonnull align 8 dereferenceable(32) %6) #23, !noalias !421
  %10 = extractvalue { i64, ptr } %9, 0
  %11 = extractvalue { i64, ptr } %9, 1
  store i64 %10, ptr %8, align 8, !alias.scope !424, !noalias !421
  %.sroa.2.0..sroa_idx.i6.i = getelementptr inbounds i8, ptr %5, i64 32
  store ptr %11, ptr %.sroa.2.0..sroa_idx.i6.i, align 8, !alias.scope !424, !noalias !421
  %12 = getelementptr inbounds i8, ptr %5, i64 40
  store ptr null, ptr %12, align 8, !alias.scope !424, !noalias !421
  call void @_Z10cmCatViewsSt16initializer_listISt4pairISt17basic_string_viewIcSt11char_traitsIcEEPNSt7__cxx1112basic_stringIcS3_SaIcEEEEE(ptr dead_on_unwind writable sret(%"class.std::__cxx11::basic_string") align 8 %0, ptr nonnull %5, i64 2)
  call void @llvm.lifetime.end.p0(i64 48, ptr nonnull %5)
  ret void
}